target datalayout = "e-m:e-p270:32:32-p271:32:32-p272:64:64-i64:64-i128:128-f80:128-n8:16:32:64-S128"
target triple = "x86_64-pc-linux-gnu"

%struct.Mop_Man_t_ = type { i32, i32, i32, i32, ptr, ptr, ptr, ptr }
%struct.Vec_Int_t_ = type { i32, i32, ptr }

@.str.10 = private unnamed_addr constant [5 x i8] c".%d\0A\00", align 1
@.str.11 = private unnamed_addr constant [4 x i8] c".e\0A\00", align 1

; Function Attrs: inlinehint nounwind uwtable
define internal i32 @Vec_IntEntry(ptr noundef %0, i32 noundef %1) #3 {
  %3 = alloca ptr, align 8
  %4 = alloca i32, align 4
  store ptr %0, ptr %3, align 8, !tbaa !26
  store i32 %1, ptr %4, align 4, !tbaa !3
  %5 = load ptr, ptr %3, align 8, !tbaa !26
  %6 = getelementptr inbounds nuw %struct.Vec_Int_t_, ptr %5, i32 0, i32 2
  %7 = load ptr, ptr %6, align 8, !tbaa !31
  %8 = load i32, ptr %4, align 4, !tbaa !3
  %9 = sext i32 %8 to i64
  %10 = getelementptr inbounds i32, ptr %7, i64 %9
  %11 = load i32, ptr %10, align 4, !tbaa !3
  ret i32 %11
}

; Function Attrs: inlinehint nounwind uwtable
define internal i32 @Vec_IntSize(ptr noundef %0) #3 {
  %2 = alloca ptr, align 8
  store ptr %0, ptr %2, align 8, !tbaa !26
  %3 = load ptr, ptr %2, align 8, !tbaa !26
  %4 = getelementptr inbounds nuw %struct.Vec_Int_t_, ptr %3, i32 0, i32 1
  %5 = load i32, ptr %4, align 4, !tbaa !27
  ret i32 %5
}

; Function Attrs: nounwind uwtable
define void @Mop_ManPrint(ptr noundef %0) #0 {
  %2 = alloca ptr, align 8
  %3 = alloca i32, align 4
  %4 = alloca i32, align 4
  store ptr %0, ptr %2, align 8, !tbaa !7
  call void @llvm.lifetime.start.p0(i64 4, ptr %3) #13
  call void @llvm.lifetime.start.p0(i64 4, ptr %4) #13
  %5 = load ptr, ptr %2, align 8, !tbaa !7
  %6 = getelementptr inbounds nuw %struct.Mop_Man_t_, ptr %5, i32 0, i32 0
  %7 = load i32, ptr %6, align 8, !tbaa !10
  %8 = call i32 (ptr, ...) @printf(ptr noundef @.str.10, i32 noundef %7)
  %9 = load ptr, ptr %2, align 8, !tbaa !7
  %10 = getelementptr inbounds nuw %struct.Mop_Man_t_, ptr %9, i32 0, i32 1
  %11 = load i32, ptr %10, align 4, !tbaa !14
  %12 = call i32 (ptr, ...) @printf(ptr noundef @.str.10, i32 noundef %11)
  store i32 0, ptr %3, align 4, !tbaa !3
  br label %13

13:                                               ; preds = %31, %1
  %14 = load i32, ptr %3, align 4, !tbaa !3
  %15 = load ptr, ptr %2, align 8, !tbaa !7
  %16 = getelementptr inbounds nuw %struct.Mop_Man_t_, ptr %15, i32 0, i32 6
  %17 = load ptr, ptr %16, align 8, !tbaa !19
  %18 = call i32 @Vec_IntSize(ptr noundef %17)
  %19 = icmp slt i32 %14, %18
  br i1 %19, label %20, label %26

20:                                               ; preds = %13
  %21 = load ptr, ptr %2, align 8, !tbaa !7
  %22 = getelementptr inbounds nuw %struct.Mop_Man_t_, ptr %21, i32 0, i32 6
  %23 = load ptr, ptr %22, align 8, !tbaa !19
  %24 = load i32, ptr %3, align 4, !tbaa !3
  %25 = call i32 @Vec_IntEntry(ptr noundef %23, i32 noundef %24)
  store i32 %25, ptr %4, align 4, !tbaa !3
  br label %26

26:                                               ; preds = %20, %13
  %27 = phi i1 [ false, %13 ], [ true, %20 ]
  br i1 %27, label %28, label %34

28:                                               ; preds = %26
  %29 = load ptr, ptr %2, align 8, !tbaa !7
  %30 = load i32, ptr %4, align 4, !tbaa !3
  call void @Mop_ManPrintOne(ptr noundef %29, i32 noundef %30)
  br label %31

31:                                               ; preds = %28
  %32 = load i32, ptr %3, align 4, !tbaa !3
  %33 = add nsw i32 %32, 1
  store i32 %33, ptr %3, align 4, !tbaa !3
  br label %13, !llvm.loop !52

34:                                               ; preds = %26
  %35 = call i32 (ptr, ...) @printf(ptr noundef @.str.11)
  call void @llvm.lifetime.end.p0(i64 4, ptr %4) #13
  call void @llvm.lifetime.end.p0(i64 4, ptr %3) #13
  ret void
}