; Function Attrs: nofree nounwind uwtable
define void @Mop_ManPrint(ptr noundef readonly captures(none) %0) local_unnamed_addr #9 {
  %2 = load i32, ptr %0, align 8, !tbaa !3
  %3 = tail call i32 (ptr, ...) @printf(ptr noundef nonnull dereferenceable(1) @.str.10, i32 noundef %2)
  %4 = getelementptr inbounds nuw i8, ptr %0, i64 4
  %5 = load i32, ptr %4, align 4, !tbaa !11
  %6 = tail call i32 (ptr, ...) @printf(ptr noundef nonnull dereferenceable(1) @.str.10, i32 noundef %5)
  %7 = getelementptr inbounds nuw i8, ptr %0, i64 32
  %8 = load ptr, ptr %7, align 8, !tbaa !26
  %9 = getelementptr i8, ptr %8, i64 4
  %.val9 = load i32, ptr %9, align 4, !tbaa !21
  %10 = icmp sgt i32 %.val9, 0
  br i1 %10, label %.lr.ph, label %.critedge

.lr.ph:                                           ; preds = %1, %.lr.ph
  %indvars.iv = phi i64 [ %indvars.iv.next, %.lr.ph ], [ 0, %1 ]
  %11 = phi ptr [ %15, %.lr.ph ], [ %8, %1 ]
  %12 = getelementptr i8, ptr %11, i64 8
  %.val8 = load ptr, ptr %12, align 8, !tbaa !25
  %13 = getelementptr inbounds nuw i32, ptr %.val8, i64 %indvars.iv
  %14 = load i32, ptr %13, align 4, !tbaa !28
  tail call void @Mop_ManPrintOne(ptr noundef nonnull %0, i32 noundef %14)
  %indvars.iv.next = add nuw nsw i64 %indvars.iv, 1
  %15 = load ptr, ptr %7, align 8, !tbaa !26
  %16 = getelementptr i8, ptr %15, i64 4
  %.val = load i32, ptr %16, align 4, !tbaa !21
  %17 = sext i32 %.val to i64
  %18 = icmp slt i64 %indvars.iv.next, %17
  br i1 %18, label %.lr.ph, label %.critedge, !llvm.loop !48

.critedge:                                        ; preds = %.lr.ph, %1
  %puts = tail call i32 @puts(ptr nonnull dereferenceable(1) @str)
  ret void
}